target datalayout = "e-m:e-p270:32:32-p271:32:32-p272:64:64-i64:64-i128:128-f80:128-n8:16:32:64-S128"
target triple = "x86_64-unknown-linux-gnu"

%"class.zmq::mechanism_t" = type { ptr, %"struct.zmq::options_t", %"class.std::map", %"class.std::map", %"struct.zmq::blob_t", %"struct.zmq::blob_t" }
%"struct.zmq::options_t" = type { i32, i32, i64, i8, [256 x i8], i32, i32, i32, i32, i32, i32, i32, i32, i8, %"struct.zmq::atomic_value_t", i32, i32, i32, i32, i32, i32, i64, i32, i32, i8, i32, i8, i8, i8, i8, i8, %"class.std::__cxx11::basic_string", %"class.std::__cxx11::basic_string", %"class.std::__cxx11::basic_string", i32, i32, i32, i32, %"class.std::vector", %"class.std::set", %"class.std::set", %"class.std::set.6", i32, i32, %"class.std::__cxx11::basic_string", %"class.std::__cxx11::basic_string", %"class.std::__cxx11::basic_string", [32 x i8], [32 x i8], [32 x i8], %"class.std::__cxx11::basic_string", %"class.std::__cxx11::basic_string", i32, i32, i8, i32, i8, i32, i8, i16, i32, i32, i32, %"class.std::__cxx11::basic_string", i8, i8, i8, i32, i32, i8, i32, %"class.std::map", i32, %"class.std::__cxx11::basic_string", %"class.std::__cxx11::basic_string", %"class.std::__cxx11::basic_string", %"class.std::__cxx11::basic_string", i8, %"class.std::vector.21", i8, %"class.std::vector.21", i8, %"class.std::vector.21", i8, i32, i8, i32, i32, i32, i32, i32, i8, i32 }
%"struct.zmq::atomic_value_t" = type { %"struct.std::atomic" }
%"struct.std::atomic" = type { %"struct.std::__atomic_base" }
%"struct.std::__atomic_base" = type { i32 }
%"class.std::vector" = type { %"struct.std::_Vector_base" }
%"struct.std::_Vector_base" = type { %"struct.std::_Vector_base<zmq::tcp_address_mask_t, std::allocator<zmq::tcp_address_mask_t>>::_Vector_impl" }
%"struct.std::_Vector_base<zmq::tcp_address_mask_t, std::allocator<zmq::tcp_address_mask_t>>::_Vector_impl" = type { %"struct.std::_Vector_base<zmq::tcp_address_mask_t, std::allocator<zmq::tcp_address_mask_t>>::_Vector_impl_data" }
%"struct.std::_Vector_base<zmq::tcp_address_mask_t, std::allocator<zmq::tcp_address_mask_t>>::_Vector_impl_data" = type { ptr, ptr, ptr }
%"class.std::set" = type { %"class.std::_Rb_tree" }
%"class.std::_Rb_tree" = type { %"struct.std::_Rb_tree<unsigned int, unsigned int, std::_Identity<unsigned int>, std::less<unsigned int>>::_Rb_tree_impl" }
%"struct.std::_Rb_tree<unsigned int, unsigned int, std::_Identity<unsigned int>, std::less<unsigned int>>::_Rb_tree_impl" = type { %"struct.std::_Rb_tree_key_compare", %"struct.std::_Rb_tree_header" }
%"struct.std::_Rb_tree_key_compare" = type { %"struct.std::less" }
%"struct.std::less" = type { i8 }
%"struct.std::_Rb_tree_header" = type { %"struct.std::_Rb_tree_node_base", i64 }
%"struct.std::_Rb_tree_node_base" = type { i32, ptr, ptr, ptr }
%"class.std::set.6" = type { %"class.std::_Rb_tree.7" }
%"class.std::_Rb_tree.7" = type { %"struct.std::_Rb_tree<int, int, std::_Identity<int>, std::less<int>>::_Rb_tree_impl" }
%"struct.std::_Rb_tree<int, int, std::_Identity<int>, std::less<int>>::_Rb_tree_impl" = type { %"struct.std::_Rb_tree_key_compare.11", %"struct.std::_Rb_tree_header" }
%"struct.std::_Rb_tree_key_compare.11" = type { %"struct.std::less.12" }
%"struct.std::less.12" = type { i8 }
%"class.std::__cxx11::basic_string" = type { %"struct.std::__cxx11::basic_string<char>::_Alloc_hider", i64, %union.anon }
%"struct.std::__cxx11::basic_string<char>::_Alloc_hider" = type { ptr }
%union.anon = type { i64, [8 x i8] }
%"class.std::vector.21" = type { %"struct.std::_Vector_base.22" }
%"struct.std::_Vector_base.22" = type { %"struct.std::_Vector_base<unsigned char, std::allocator<unsigned char>>::_Vector_impl" }
%"struct.std::_Vector_base<unsigned char, std::allocator<unsigned char>>::_Vector_impl" = type { %"struct.std::_Vector_base<unsigned char, std::allocator<unsigned char>>::_Vector_impl_data" }
%"struct.std::_Vector_base<unsigned char, std::allocator<unsigned char>>::_Vector_impl_data" = type { ptr, ptr, ptr }
%"class.std::map" = type { %"class.std::_Rb_tree.14" }
%"class.std::_Rb_tree.14" = type { %"struct.std::_Rb_tree<std::__cxx11::basic_string<char>, std::pair<const std::__cxx11::basic_string<char>, std::__cxx11::basic_string<char>>, std::_Select1st<std::pair<const std::__cxx11::basic_string<char>, std::__cxx11::basic_string<char>>>, std::less<std::__cxx11::basic_string<char>>>::_Rb_tree_impl" }
%"struct.std::_Rb_tree<std::__cxx11::basic_string<char>, std::pair<const std::__cxx11::basic_string<char>, std::__cxx11::basic_string<char>>, std::_Select1st<std::pair<const std::__cxx11::basic_string<char>, std::__cxx11::basic_string<char>>>, std::less<std::__cxx11::basic_string<char>>>::_Rb_tree_impl" = type { %"struct.std::_Rb_tree_key_compare.18", %"struct.std::_Rb_tree_header" }
%"struct.std::_Rb_tree_key_compare.18" = type { %"struct.std::less.19" }
%"struct.std::less.19" = type { i8 }
%"struct.zmq::blob_t" = type <{ ptr, i64, i8, [7 x i8] }>

@stderr = external global ptr, align 8
@.str = private unnamed_addr constant [30 x i8] c"Assertion failed: %s (%s:%d)\0A\00", align 1
@.str.1 = private unnamed_addr constant [16 x i8] c"zap_required ()\00", align 1
@.str.2 = private unnamed_addr constant [112 x i8] c"generated/home/dtcxzyw/WorkSpace/Projects/compilers/llvm-opt-benchmark/bench/libzmq/libzmq/src/plain_server.cpp\00", align 1

; Function Attrs: mustprogress nounwind uwtable
define linkonce_odr void @_ZN3zmq16mechanism_base_tD2Ev(ptr noundef nonnull align 8 dereferenceable(1496) %this) unnamed_addr #2 comdat align 2 {
entry:
  %this.addr = alloca ptr, align 8
  store ptr %this, ptr %this.addr, align 8
  %this1 = load ptr, ptr %this.addr, align 8
  call void @_ZN3zmq11mechanism_tD2Ev(ptr noundef nonnull align 8 dereferenceable(1488) %this1) #11
  ret void
}

; Function Attrs: mustprogress uwtable
define void @_ZN3zmq14plain_server_tC1EPNS_14session_base_tERKNSt7__cxx1112basic_stringIcSt11char_traitsIcESaIcEEERKNS_9options_tE(ptr noundef nonnull align 8 dereferenceable(1576) %this, ptr noundef %session_, ptr noundef nonnull align 8 dereferenceable(32) %peer_address_, ptr noundef nonnull align 8 dereferenceable(1336) %options_) unnamed_addr #0 align 2 personality ptr @__gxx_personality_v0 {
entry:
  %this.addr = alloca ptr, align 8
  %session_.addr = alloca ptr, align 8
  %peer_address_.addr = alloca ptr, align 8
  %options_.addr = alloca ptr, align 8
  %exn.slot = alloca ptr, align 8
  %ehselector.slot = alloca i32, align 4
  store ptr %this, ptr %this.addr, align 8
  store ptr %session_, ptr %session_.addr, align 8
  store ptr %peer_address_, ptr %peer_address_.addr, align 8
  store ptr %options_, ptr %options_.addr, align 8
  %this1 = load ptr, ptr %this.addr, align 8
  %0 = getelementptr inbounds i8, ptr %this1, i64 80
  %1 = load ptr, ptr %session_.addr, align 8
  %2 = load ptr, ptr %options_.addr, align 8
  call void @_ZN3zmq16mechanism_base_tC2EPNS_14session_base_tERKNS_9options_tE(ptr noundef nonnull align 8 dereferenceable(1496) %0, ptr noundef %1, ptr noundef nonnull align 8 dereferenceable(1336) %2)
  %3 = load ptr, ptr %session_.addr, align 8
  %4 = load ptr, ptr %peer_address_.addr, align 8
  %5 = load ptr, ptr %options_.addr, align 8
  invoke void @_ZN3zmq29zap_client_common_handshake_tC2EPNS_14session_base_tERKNSt7__cxx1112basic_stringIcSt11char_traitsIcESaIcEEERKNS_9options_tENS0_7state_tE(ptr noundef nonnull align 8 dereferenceable(80) %this1, ptr noundef getelementptr inbounds ([6 x ptr], ptr @_ZTTN3zmq14plain_server_tE, i64 0, i64 1), ptr noundef %3, ptr noundef nonnull align 8 dereferenceable(32) %4, ptr noundef nonnull align 8 dereferenceable(1336) %5, i32 noundef 1)
          to label %invoke.cont unwind label %lpad

invoke.cont:                                      ; preds = %entry
  store ptr getelementptr inbounds ({ [11 x ptr], [19 x ptr] }, ptr @_ZTVN3zmq14plain_server_tE, i32 0, i32 0, i32 3), ptr %this1, align 8
  %add.ptr = getelementptr inbounds i8, ptr %this1, i64 80
  store ptr getelementptr inbounds ({ [11 x ptr], [19 x ptr] }, ptr @_ZTVN3zmq14plain_server_tE, i32 0, i32 1, i32 10), ptr %add.ptr, align 8
  %add.ptr2 = getelementptr inbounds i8, ptr %this1, i64 80
  %options = getelementptr inbounds %"class.zmq::mechanism_t", ptr %add.ptr2, i32 0, i32 1
  %zap_enforce_domain = getelementptr inbounds %"struct.zmq::options_t", ptr %options, i32 0, i32 64
  %6 = load i8, ptr %zap_enforce_domain, align 8
  %tobool = trunc i8 %6 to i1
  br i1 %tobool, label %if.then, label %if.end12

if.then:                                          ; preds = %invoke.cont
  br label %do.body

do.body:                                          ; preds = %if.then
  %add.ptr3 = getelementptr inbounds i8, ptr %this1, i64 80
  %call = invoke noundef zeroext i1 @_ZNK3zmq16mechanism_base_t12zap_requiredEv(ptr noundef nonnull align 8 dereferenceable(1496) %add.ptr3)
          to label %invoke.cont5 unwind label %lpad4

invoke.cont5:                                     ; preds = %do.body
  %lnot = xor i1 %call, true
  br i1 %lnot, label %if.then6, label %if.end

if.then6:                                         ; preds = %invoke.cont5
  %7 = load ptr, ptr @stderr, align 8
  %call8 = invoke i32 (ptr, ptr, ...) @fprintf(ptr noundef %7, ptr noundef @.str, ptr noundef @.str.1, ptr noundef @.str.2, i32 noundef 27)
          to label %invoke.cont7 unwind label %lpad4

invoke.cont7:                                     ; preds = %if.then6
  %8 = load ptr, ptr @stderr, align 8
  %call10 = invoke i32 @fflush(ptr noundef %8)
          to label %invoke.cont9 unwind label %lpad4

invoke.cont9:                                     ; preds = %invoke.cont7
  invoke void @_ZN3zmq9zmq_abortEPKc(ptr noundef @.str.1)
          to label %invoke.cont11 unwind label %lpad4

invoke.cont11:                                    ; preds = %invoke.cont9
  br label %if.end

lpad:                                             ; preds = %entry
  %9 = landingpad { ptr, i32 }
          cleanup
  %10 = extractvalue { ptr, i32 } %9, 0
  store ptr %10, ptr %exn.slot, align 8
  %11 = extractvalue { ptr, i32 } %9, 1
  store i32 %11, ptr %ehselector.slot, align 4
  br label %ehcleanup

lpad4:                                            ; preds = %invoke.cont9, %invoke.cont7, %if.then6, %do.body
  %12 = landingpad { ptr, i32 }
          cleanup
  %13 = extractvalue { ptr, i32 } %12, 0
  store ptr %13, ptr %exn.slot, align 8
  %14 = extractvalue { ptr, i32 } %12, 1
  store i32 %14, ptr %ehselector.slot, align 4
  call void @_ZN3zmq29zap_client_common_handshake_tD2Ev(ptr noundef nonnull align 8 dereferenceable(80) %this1, ptr noundef getelementptr inbounds ([6 x ptr], ptr @_ZTTN3zmq14plain_server_tE, i64 0, i64 1)) #11
  br label %ehcleanup

if.end:                                           ; preds = %invoke.cont11, %invoke.cont5
  br label %do.cond

do.cond:                                          ; preds = %if.end
  br label %do.end

do.end:                                           ; preds = %do.cond
  br label %if.end12

if.end12:                                         ; preds = %do.end, %invoke.cont
  ret void

ehcleanup:                                        ; preds = %lpad4, %lpad
  %15 = getelementptr inbounds i8, ptr %this1, i64 80
  call void @_ZN3zmq16mechanism_base_tD2Ev(ptr noundef nonnull align 8 dereferenceable(1496) %15) #11
  br label %eh.resume

eh.resume:                                        ; preds = %ehcleanup
  %exn = load ptr, ptr %exn.slot, align 8
  %sel = load i32, ptr %ehselector.slot, align 4
  %lpad.val = insertvalue { ptr, i32 } poison, ptr %exn, 0
  %lpad.val13 = insertvalue { ptr, i32 } %lpad.val, i32 %sel, 1
  resume { ptr, i32 } %lpad.val13
}