; Function Attrs: mustprogress uwtable
define void @_ZN3zmq14plain_server_tC1EPNS_14session_base_tERKNSt7__cxx1112basic_stringIcSt11char_traitsIcESaIcEEERKNS_9options_tE(ptr noundef nonnull align 8 dereferenceable(1576) %this, ptr noundef %session_, ptr noundef nonnull align 8 dereferenceable(32) %peer_address_, ptr noundef nonnull align 8 dereferenceable(1336) %options_) unnamed_addr #0 align 2 personality ptr @__gxx_personality_v0 {
entry:
  %0 = getelementptr inbounds i8, ptr %this, i64 80
  tail call void @_ZN3zmq16mechanism_base_tC2EPNS_14session_base_tERKNS_9options_tE(ptr noundef nonnull align 8 dereferenceable(1496) %0, ptr noundef %session_, ptr noundef nonnull align 8 dereferenceable(1336) %options_)
  invoke void @_ZN3zmq29zap_client_common_handshake_tC2EPNS_14session_base_tERKNSt7__cxx1112basic_stringIcSt11char_traitsIcESaIcEEERKNS_9options_tENS0_7state_tE(ptr noundef nonnull align 8 dereferenceable(80) %this, ptr noundef nonnull getelementptr inbounds ([6 x ptr], ptr @_ZTTN3zmq14plain_server_tE, i64 0, i64 1), ptr noundef %session_, ptr noundef nonnull align 8 dereferenceable(32) %peer_address_, ptr noundef nonnull align 8 dereferenceable(1336) %options_, i32 noundef 1)
          to label %invoke.cont unwind label %lpad

invoke.cont:                                      ; preds = %entry
  store ptr getelementptr inbounds ({ [11 x ptr], [19 x ptr] }, ptr @_ZTVN3zmq14plain_server_tE, i64 0, i32 0, i64 3), ptr %this, align 8
  store ptr getelementptr inbounds ({ [11 x ptr], [19 x ptr] }, ptr @_ZTVN3zmq14plain_server_tE, i64 0, i32 1, i64 10), ptr %0, align 8
  %zap_enforce_domain = getelementptr inbounds i8, ptr %this, i64 1080
  %1 = load i8, ptr %zap_enforce_domain, align 8
  %2 = and i8 %1, 1
  %tobool.not = icmp eq i8 %2, 0
  br i1 %tobool.not, label %if.end12, label %do.body

do.body:                                          ; preds = %invoke.cont
  %call = invoke noundef zeroext i1 @_ZNK3zmq16mechanism_base_t12zap_requiredEv(ptr noundef nonnull align 8 dereferenceable(1496) %0)
          to label %invoke.cont5 unwind label %lpad4

invoke.cont5:                                     ; preds = %do.body
  br i1 %call, label %if.end12, label %if.then6

if.then6:                                         ; preds = %invoke.cont5
  %3 = load ptr, ptr @stderr, align 8
  %call8 = tail call i32 (ptr, ptr, ...) @fprintf(ptr noundef %3, ptr noundef nonnull @.str, ptr noundef nonnull @.str.1, ptr noundef nonnull @.str.2, i32 noundef 27) #12
  %4 = load ptr, ptr @stderr, align 8
  %call10 = tail call i32 @fflush(ptr noundef %4)
  invoke void @_ZN3zmq9zmq_abortEPKc(ptr noundef nonnull @.str.1)
          to label %if.end12 unwind label %lpad4

lpad:                                             ; preds = %entry
  %5 = landingpad { ptr, i32 }
          cleanup
  br label %ehcleanup

lpad4:                                            ; preds = %if.then6, %do.body
  %6 = landingpad { ptr, i32 }
          cleanup
  tail call void @_ZN3zmq29zap_client_common_handshake_tD2Ev(ptr noundef nonnull align 8 dereferenceable(80) %this, ptr noundef nonnull getelementptr inbounds ([6 x ptr], ptr @_ZTTN3zmq14plain_server_tE, i64 0, i64 1)) #13
  br label %ehcleanup

if.end12:                                         ; preds = %invoke.cont5, %if.then6, %invoke.cont
  ret void

ehcleanup:                                        ; preds = %lpad4, %lpad
  %.pn = phi { ptr, i32 } [ %6, %lpad4 ], [ %5, %lpad ]
  tail call void @_ZN3zmq11mechanism_tD2Ev(ptr noundef nonnull align 8 dereferenceable(1488) %0) #13
  resume { ptr, i32 } %.pn
}